(lp1
(lp2
I7
aI6
aI0
aI0
aa(lp3
I9
aI8
aI0
aI2
aa(lp4
I9
aI8
aI0
aI0
aa(lp5
I9
aI8
aI0
aI3
aa(lp6
I17
aI16
aI0
aI1
aa(lp7
I10
aI9
aI0
aI0
aa(lp8
I7
aI6
aI0
aI3
aa(lp9
I8
aI7
aI0
aI2
aa(lp10
I16
aI15
aI0
aI3
aa(lp11
I10
aI9
aI0
aI2
aa(lp12
I18
aI17
aI0
aI1
aa(lp13
I11
aI10
aI0
aI1
aa(lp14
I11
aI10
aI0
aI1
aa(lp15
I16
aI15
aI0
aI0
aa(lp16
I5
aI4
aI0
aI1
aa(lp17
I34
aI33
aI0
aI5
aa(lp18
I14
aI13
aI0
aI2
aa(lp19
I15
aI14
aI0
aI3
aa(lp20
I14
aI13
aI0
aI2
aa(lp21
I5
aI4
aI0
aI0
aa(lp22
I13
aI12
aI0
aI1
aa(lp23
I10
aI9
aI0
aI0
aa(lp24
I2
aI1
aI0
aI0
aa(lp25
I27
aI26
aI0
aI13
aa(lp26
I13
aI12
aI0
aI2
aa(lp27
I19
aI18
aI0
aI4
aa(lp28
I5
aI4
aI0
aI2
aa(lp29
I20
aI19
aI0
aI5
aa(lp30
I9
aI8
aI0
aI0
aa(lp31
I22
aI21
aI0
aI3
aa(lp32
I32
aI31
aI0
aI2
aa(lp33
I5
aI4
aI0
aI1
aa(lp34
I10
aI9
aI0
aI0
aa(lp35
I28
aI27
aI0
aI5
aa(lp36
I4
aI3
aI0
aI0
aa(lp37
I20
aI19
aI0
aI4
aa(lp38
I27
aI26
aI0
aI10
aa(lp39
I7
aI6
aI0
aI0
aa(lp40
I44
aI43
aI0
aI6
aa(lp41
I11
aI10
aI0
aI3
aa(lp42
I28
aI27
aI0
aI9
aa(lp43
I15
aI14
aI0
aI7
aa(lp44
I15
aI14
aI0
aI1
aa(lp45
I11
aI10
aI0
aI1
aa(lp46
I18
aI17
aI0
aI4
aa(lp47
I9
aI8
aI0
aI0
aa(lp48
I10
aI9
aI0
aI0
aa(lp49
I7
aI6
aI0
aI1
aa(lp50
I8
aI7
aI0
aI1
aa(lp51
I4
aI3
aI0
aI0
aa(lp52
I19
aI18
aI0
aI1
aa(lp53
I22
aI21
aI0
aI3
aa(lp54
I15
aI14
aI0
aI2
aa(lp55
I6
aI5
aI0
aI1
aa(lp56
I22
aI21
aI0
aI5
aa(lp57
I22
aI21
aI0
aI3
aa(lp58
I10
aI9
aI0
aI0
aa(lp59
I14
aI13
aI0
aI2
aa(lp60
I16
aI15
aI0
aI1
aa(lp61
I8
aI7
aI0
aI1
aa(lp62
I25
aI24
aI0
aI2
aa(lp63
I15
aI14
aI0
aI2
aa(lp64
I10
aI9
aI0
aI0
aa(lp65
I7
aI6
aI0
aI0
aa(lp66
I11
aI10
aI0
aI2
aa(lp67
I20
aI19
aI0
aI5
aa(lp68
I16
aI15
aI0
aI4
aa(lp69
I14
aI13
aI0
aI0
aa(lp70
I37
aI36
aI0
aI4
aa(lp71
I9
aI8
aI0
aI0
aa(lp72
I4
aI3
aI0
aI0
aa(lp73
I27
aI26
aI0
aI3
aa(lp74
I11
aI10
aI0
aI2
aa(lp75
I2
aI1
aI0
aI0
aa(lp76
I19
aI18
aI0
aI5
aa(lp77
I8
aI7
aI0
aI2
aa(lp78
I7
aI6
aI0
aI2
aa(lp79
I15
aI14
aI0
aI2
aa(lp80
I14
aI13
aI0
aI3
aa(lp81
I33
aI32
aI0
aI6
aa.